; ModuleID = '39/872.c'
source_filename = "39/872.c"
target datalayout = "e-m:e-p270:32:32-p271:32:32-p272:64:64-i64:64-f80:128-n8:16:32:64-S128"
target triple = "x86_64-pc-linux-gnu"

%struct.student = type { [20 x i8], i32, i32, i8, i8, i32, i32 }

@.str = private unnamed_addr constant [3 x i8] c"%d\00", align 1
@.str.1 = private unnamed_addr constant [3 x i8] c"%s\00", align 1
@s = common dso_local global [100 x %struct.student] zeroinitializer, align 16
@.str.2 = private unnamed_addr constant [13 x i8] c"%d%d %c %c%d\00", align 1
@.str.3 = private unnamed_addr constant [4 x i8] c"%s\0A\00", align 1
@.str.4 = private unnamed_addr constant [4 x i8] c"%d\0A\00", align 1

; Function Attrs: noinline nounwind uwtable
define dso_local i32 @main() #0 {
  %1 = alloca i32, align 4
  %2 = alloca i32, align 4
  %3 = alloca i32, align 4
  %4 = alloca i32, align 4
  store i32 0, i32* %1, align 4
  store i32 0, i32* %4, align 4
  %5 = call i32 (i8*, ...) @__isoc99_scanf(i8* getelementptr inbounds ([3 x i8], [3 x i8]* @.str, i64 0, i64 0), i32* %2)
  store i32 0, i32* %3, align 4
  br label %6

6:                                                ; preds = %149, %0
  %7 = load i32, i32* %3, align 4
  %8 = load i32, i32* %2, align 4
  %9 = icmp slt i32 %7, %8
  br i1 %9, label %10, label %152

10:                                               ; preds = %6
  %11 = load i32, i32* %3, align 4
  %12 = sext i32 %11 to i64
  %13 = getelementptr inbounds [100 x %struct.student], [100 x %struct.student]* @s, i64 0, i64 %12
  %14 = getelementptr inbounds %struct.student, %struct.student* %13, i32 0, i32 0
  %15 = getelementptr inbounds [20 x i8], [20 x i8]* %14, i64 0, i64 0
  %16 = call i32 (i8*, ...) @__isoc99_scanf(i8* getelementptr inbounds ([3 x i8], [3 x i8]* @.str.1, i64 0, i64 0), i8* %15)
  %17 = load i32, i32* %3, align 4
  %18 = sext i32 %17 to i64
  %19 = getelementptr inbounds [100 x %struct.student], [100 x %struct.student]* @s, i64 0, i64 %18
  %20 = getelementptr inbounds %struct.student, %struct.student* %19, i32 0, i32 1
  %21 = load i32, i32* %3, align 4
  %22 = sext i32 %21 to i64
  %23 = getelementptr inbounds [100 x %struct.student], [100 x %struct.student]* @s, i64 0, i64 %22
  %24 = getelementptr inbounds %struct.student, %struct.student* %23, i32 0, i32 2
  %25 = load i32, i32* %3, align 4
  %26 = sext i32 %25 to i64
  %27 = getelementptr inbounds [100 x %struct.student], [100 x %struct.student]* @s, i64 0, i64 %26
  %28 = getelementptr inbounds %struct.student, %struct.student* %27, i32 0, i32 3
  %29 = load i32, i32* %3, align 4
  %30 = sext i32 %29 to i64
  %31 = getelementptr inbounds [100 x %struct.student], [100 x %struct.student]* @s, i64 0, i64 %30
  %32 = getelementptr inbounds %struct.student, %struct.student* %31, i32 0, i32 4
  %33 = load i32, i32* %3, align 4
  %34 = sext i32 %33 to i64
  %35 = getelementptr inbounds [100 x %struct.student], [100 x %struct.student]* @s, i64 0, i64 %34
  %36 = getelementptr inbounds %struct.student, %struct.student* %35, i32 0, i32 5
  %37 = call i32 (i8*, ...) @__isoc99_scanf(i8* getelementptr inbounds ([13 x i8], [13 x i8]* @.str.2, i64 0, i64 0), i32* %20, i32* %24, i8* %28, i8* %32, i32* %36)
  %38 = load i32, i32* %3, align 4
  %39 = sext i32 %38 to i64
  %40 = getelementptr inbounds [100 x %struct.student], [100 x %struct.student]* @s, i64 0, i64 %39
  %41 = getelementptr inbounds %struct.student, %struct.student* %40, i32 0, i32 6
  store i32 0, i32* %41, align 4
  %42 = load i32, i32* %3, align 4
  %43 = sext i32 %42 to i64
  %44 = getelementptr inbounds [100 x %struct.student], [100 x %struct.student]* @s, i64 0, i64 %43
  %45 = getelementptr inbounds %struct.student, %struct.student* %44, i32 0, i32 1
  %46 = load i32, i32* %45, align 4
  %47 = icmp sgt i32 %46, 80
  br i1 %47, label %48, label %62

48:                                               ; preds = %10
  %49 = load i32, i32* %3, align 4
  %50 = sext i32 %49 to i64
  %51 = getelementptr inbounds [100 x %struct.student], [100 x %struct.student]* @s, i64 0, i64 %50
  %52 = getelementptr inbounds %struct.student, %struct.student* %51, i32 0, i32 5
  %53 = load i32, i32* %52, align 8
  %54 = icmp sge i32 %53, 1
  br i1 %54, label %55, label %62

55:                                               ; preds = %48
  %56 = load i32, i32* %3, align 4
  %57 = sext i32 %56 to i64
  %58 = getelementptr inbounds [100 x %struct.student], [100 x %struct.student]* @s, i64 0, i64 %57
  %59 = getelementptr inbounds %struct.student, %struct.student* %58, i32 0, i32 6
  %60 = load i32, i32* %59, align 4
  %61 = add nsw i32 %60, 8000
  store i32 %61, i32* %59, align 4
  br label %62

62:                                               ; preds = %55, %48, %10
  %63 = load i32, i32* %3, align 4
  %64 = sext i32 %63 to i64
  %65 = getelementptr inbounds [100 x %struct.student], [100 x %struct.student]* @s, i64 0, i64 %64
  %66 = getelementptr inbounds %struct.student, %struct.student* %65, i32 0, i32 1
  %67 = load i32, i32* %66, align 4
  %68 = icmp sgt i32 %67, 85
  br i1 %68, label %69, label %83

69:                                               ; preds = %62
  %70 = load i32, i32* %3, align 4
  %71 = sext i32 %70 to i64
  %72 = getelementptr inbounds [100 x %struct.student], [100 x %struct.student]* @s, i64 0, i64 %71
  %73 = getelementptr inbounds %struct.student, %struct.student* %72, i32 0, i32 2
  %74 = load i32, i32* %73, align 8
  %75 = icmp sgt i32 %74, 80
  br i1 %75, label %76, label %83

76:                                               ; preds = %69
  %77 = load i32, i32* %3, align 4
  %78 = sext i32 %77 to i64
  %79 = getelementptr inbounds [100 x %struct.student], [100 x %struct.student]* @s, i64 0, i64 %78
  %80 = getelementptr inbounds %struct.student, %struct.student* %79, i32 0, i32 6
  %81 = load i32, i32* %80, align 4
  %82 = add nsw i32 %81, 4000
  store i32 %82, i32* %80, align 4
  br label %83

83:                                               ; preds = %76, %69, %62
  %84 = load i32, i32* %3, align 4
  %85 = sext i32 %84 to i64
  %86 = getelementptr inbounds [100 x %struct.student], [100 x %struct.student]* @s, i64 0, i64 %85
  %87 = getelementptr inbounds %struct.student, %struct.student* %86, i32 0, i32 1
  %88 = load i32, i32* %87, align 4
  %89 = icmp sgt i32 %88, 90
  br i1 %89, label %90, label %97

90:                                               ; preds = %83
  %91 = load i32, i32* %3, align 4
  %92 = sext i32 %91 to i64
  %93 = getelementptr inbounds [100 x %struct.student], [100 x %struct.student]* @s, i64 0, i64 %92
  %94 = getelementptr inbounds %struct.student, %struct.student* %93, i32 0, i32 6
  %95 = load i32, i32* %94, align 4
  %96 = add nsw i32 %95, 2000
  store i32 %96, i32* %94, align 4
  br label %97

97:                                               ; preds = %90, %83
  %98 = load i32, i32* %3, align 4
  %99 = sext i32 %98 to i64
  %100 = getelementptr inbounds [100 x %struct.student], [100 x %struct.student]* @s, i64 0, i64 %99
  %101 = getelementptr inbounds %struct.student, %struct.student* %100, i32 0, i32 1
  %102 = load i32, i32* %101, align 4
  %103 = icmp sgt i32 %102, 85
  br i1 %103, label %104, label %119

104:                                              ; preds = %97
  %105 = load i32, i32* %3, align 4
  %106 = sext i32 %105 to i64
  %107 = getelementptr inbounds [100 x %struct.student], [100 x %struct.student]* @s, i64 0, i64 %106
  %108 = getelementptr inbounds %struct.student, %struct.student* %107, i32 0, i32 4
  %109 = load i8, i8* %108, align 1
  %110 = sext i8 %109 to i32
  %111 = icmp eq i32 %110, 89
  br i1 %111, label %112, label %119

112:                                              ; preds = %104
  %113 = load i32, i32* %3, align 4
  %114 = sext i32 %113 to i64
  %115 = getelementptr inbounds [100 x %struct.student], [100 x %struct.student]* @s, i64 0, i64 %114
  %116 = getelementptr inbounds %struct.student, %struct.student* %115, i32 0, i32 6
  %117 = load i32, i32* %116, align 4
  %118 = add nsw i32 %117, 1000
  store i32 %118, i32* %116, align 4
  br label %119

119:                                              ; preds = %112, %104, %97
  %120 = load i32, i32* %3, align 4
  %121 = sext i32 %120 to i64
  %122 = getelementptr inbounds [100 x %struct.student], [100 x %struct.student]* @s, i64 0, i64 %121
  %123 = getelementptr inbounds %struct.student, %struct.student* %122, i32 0, i32 2
  %124 = load i32, i32* %123, align 8
  %125 = icmp sgt i32 %124, 80
  br i1 %125, label %126, label %141

126:                                              ; preds = %119
  %127 = load i32, i32* %3, align 4
  %128 = sext i32 %127 to i64
  %129 = getelementptr inbounds [100 x %struct.student], [100 x %struct.student]* @s, i64 0, i64 %128
  %130 = getelementptr inbounds %struct.student, %struct.student* %129, i32 0, i32 3
  %131 = load i8, i8* %130, align 4
  %132 = sext i8 %131 to i32
  %133 = icmp eq i32 %132, 89
  br i1 %133, label %134, label %141

134:                                              ; preds = %126
  %135 = load i32, i32* %3, align 4
  %136 = sext i32 %135 to i64
  %137 = getelementptr inbounds [100 x %struct.student], [100 x %struct.student]* @s, i64 0, i64 %136
  %138 = getelementptr inbounds %struct.student, %struct.student* %137, i32 0, i32 6
  %139 = load i32, i32* %138, align 4
  %140 = add nsw i32 %139, 850
  store i32 %140, i32* %138, align 4
  br label %141

141:                                              ; preds = %134, %126, %119
  %142 = load i32, i32* %3, align 4
  %143 = sext i32 %142 to i64
  %144 = getelementptr inbounds [100 x %struct.student], [100 x %struct.student]* @s, i64 0, i64 %143
  %145 = getelementptr inbounds %struct.student, %struct.student* %144, i32 0, i32 6
  %146 = load i32, i32* %145, align 4
  %147 = load i32, i32* %4, align 4
  %148 = add nsw i32 %147, %146
  store i32 %148, i32* %4, align 4
  br label %149

149:                                              ; preds = %141
  %150 = load i32, i32* %3, align 4
  %151 = add nsw i32 %150, 1
  store i32 %151, i32* %3, align 4
  br label %6

152:                                              ; preds = %6
  store i32 1, i32* %3, align 4
  br label %153

153:                                              ; preds = %171, %152
  %154 = load i32, i32* %3, align 4
  %155 = load i32, i32* %2, align 4
  %156 = icmp slt i32 %154, %155
  br i1 %156, label %157, label %174

157:                                              ; preds = %153
  %158 = load i32, i32* %3, align 4
  %159 = sext i32 %158 to i64
  %160 = getelementptr inbounds [100 x %struct.student], [100 x %struct.student]* @s, i64 0, i64 %159
  %161 = getelementptr inbounds %struct.student, %struct.student* %160, i32 0, i32 6
  %162 = load i32, i32* %161, align 4
  %163 = load i32, i32* getelementptr inbounds ([100 x %struct.student], [100 x %struct.student]* @s, i64 0, i64 0, i32 6), align 4
  %164 = icmp sgt i32 %162, %163
  br i1 %164, label %165, label %170

165:                                              ; preds = %157
  %166 = load i32, i32* %3, align 4
  %167 = sext i32 %166 to i64
  %168 = getelementptr inbounds [100 x %struct.student], [100 x %struct.student]* @s, i64 0, i64 %167
  %169 = bitcast %struct.student* %168 to i8*
  call void @llvm.memcpy.p0i8.p0i8.i64(i8* align 16 getelementptr inbounds ([100 x %struct.student], [100 x %struct.student]* @s, i32 0, i32 0, i32 0, i32 0), i8* align 8 %169, i64 40, i1 false)
  br label %170

170:                                              ; preds = %165, %157
  br label %171

171:                                              ; preds = %170
  %172 = load i32, i32* %3, align 4
  %173 = add nsw i32 %172, 1
  store i32 %173, i32* %3, align 4
  br label %153

174:                                              ; preds = %153
  %175 = call i32 (i8*, ...) @printf(i8* getelementptr inbounds ([4 x i8], [4 x i8]* @.str.3, i64 0, i64 0), i8* getelementptr inbounds ([100 x %struct.student], [100 x %struct.student]* @s, i64 0, i64 0, i32 0, i64 0))
  %176 = load i32, i32* getelementptr inbounds ([100 x %struct.student], [100 x %struct.student]* @s, i64 0, i64 0, i32 6), align 4
  %177 = call i32 (i8*, ...) @printf(i8* getelementptr inbounds ([4 x i8], [4 x i8]* @.str.4, i64 0, i64 0), i32 %176)
  %178 = load i32, i32* %4, align 4
  %179 = call i32 (i8*, ...) @printf(i8* getelementptr inbounds ([3 x i8], [3 x i8]* @.str, i64 0, i64 0), i32 %178)
  ret i32 0
}

declare dso_local i32 @__isoc99_scanf(i8*, ...) #1

; Function Attrs: argmemonly nounwind willreturn
declare void @llvm.memcpy.p0i8.p0i8.i64(i8* noalias nocapture writeonly, i8* noalias nocapture readonly, i64, i1 immarg) #2

declare dso_local i32 @printf(i8*, ...) #1


!llvm.module.flags = !{!0}
!llvm.ident = !{!1}

!0 = !{i32 1, !"wchar_size", i32 4}
!1 = !{!"clang version 10.0.0-4ubuntu1 "}
